target datalayout = "e-m:e-p270:32:32-p271:32:32-p272:64:64-i64:64-i128:128-f80:128-n8:16:32:64-S128"
target triple = "x86_64-pc-linux-gnu"

%"class.absl::debugging_internal::ElfMemImage" = type { ptr, ptr, ptr, ptr, ptr, i32, i64, i64, i64 }
%struct.Elf64_Ehdr = type { [16 x i8], i16, i16, i32, i64, i64, i64, i32, i16, i16, i16, i16, i16, i16 }

@.str = private unnamed_addr constant [140 x i8] c"generated/home/dtcxzyw/WorkSpace/Projects/compilers/llvm-opt-benchmark/bench/abseil-cpp/abseil-cpp/absl/debugging/internal/elf_mem_image.cc\00", align 1
@.str.1 = private unnamed_addr constant [20 x i8] c"Check %s failed: %s\00", align 1
@.str.5 = private unnamed_addr constant [19 x i8] c"index out of range\00", align 1
@.str.6 = private unnamed_addr constant [37 x i8] c"index >= 0 && index < ehdr_->e_phnum\00", align 1

; Function Attrs: mustprogress nounwind uwtable
define internal noundef ptr @_ZN4absl18debugging_internal12_GLOBAL__N_115GetTableElementI10Elf64_PhdrEEPKT_PK10Elf64_Ehdrmjm(ptr noundef %0, i64 noundef %1, i32 noundef %2, i64 noundef %3) #4 {
  %5 = alloca ptr, align 8
  %6 = alloca i64, align 8
  %7 = alloca i32, align 4
  %8 = alloca i64, align 8
  store ptr %0, ptr %5, align 8, !tbaa !9
  store i64 %1, ptr %6, align 8, !tbaa !35
  store i32 %2, ptr %7, align 4, !tbaa !26
  store i64 %3, ptr %8, align 8, !tbaa !35
  %9 = load ptr, ptr %5, align 8, !tbaa !9
  %10 = load i64, ptr %6, align 8, !tbaa !35
  %11 = getelementptr inbounds nuw i8, ptr %9, i64 %10
  %12 = load i64, ptr %8, align 8, !tbaa !35
  %13 = load i32, ptr %7, align 4, !tbaa !26
  %14 = zext i32 %13 to i64
  %15 = mul i64 %12, %14
  %16 = getelementptr inbounds nuw i8, ptr %11, i64 %15
  ret ptr %16
}

; Function Attrs: mustprogress uwtable
define dso_local noundef ptr @_ZNK4absl18debugging_internal11ElfMemImage7GetPhdrEi(ptr noundef nonnull align 8 dereferenceable(72) %0, i32 noundef %1) #0 align 2 {
  %3 = alloca ptr, align 8
  %4 = alloca i32, align 4
  %5 = alloca ptr, align 8
  store ptr %0, ptr %3, align 8, !tbaa !4
  store i32 %1, ptr %4, align 4, !tbaa !26
  %6 = load ptr, ptr %3, align 8
  br label %7

7:                                                ; preds = %2
  %8 = load i32, ptr %4, align 4, !tbaa !26
  %9 = icmp sge i32 %8, 0
  br i1 %9, label %10, label %18

10:                                               ; preds = %7
  %11 = load i32, ptr %4, align 4, !tbaa !26
  %12 = getelementptr inbounds nuw %"class.absl::debugging_internal::ElfMemImage", ptr %6, i32 0, i32 0
  %13 = load ptr, ptr %12, align 8, !tbaa !12
  %14 = getelementptr inbounds nuw %struct.Elf64_Ehdr, ptr %13, i32 0, i32 10
  %15 = load i16, ptr %14, align 8, !tbaa !27
  %16 = zext i16 %15 to i32
  %17 = icmp slt i32 %11, %16
  br label %18

18:                                               ; preds = %10, %7
  %19 = phi i1 [ false, %7 ], [ %17, %10 ]
  %20 = xor i1 %19, true
  %21 = zext i1 %20 to i64
  %22 = call i64 @llvm.expect.i64(i64 %21, i64 0)
  %23 = icmp ne i64 %22, 0
  br i1 %23, label %24, label %30

24:                                               ; preds = %18
  br label %25

25:                                               ; preds = %24
  call void @llvm.lifetime.start.p0(i64 8, ptr %5) #7
  store ptr getelementptr (i8, ptr @.str, i64 123), ptr %5, align 8, !tbaa !10
  call void (i32, ptr, i32, ptr, ...) @_ZN4absl16raw_log_internal6RawLogENS_11LogSeverityEPKciS3_z(i32 noundef 3, ptr noundef getelementptr (i8, ptr @.str, i64 123), i32 noundef 105, ptr noundef @.str.1, ptr noundef @.str.6, ptr noundef @.str.5)
  br label %26

26:                                               ; preds = %25
  unreachable

27:                                               ; No predecessors!
  br label %28

28:                                               ; preds = %27
  call void @llvm.lifetime.end.p0(i64 8, ptr %5) #7
  br label %29

29:                                               ; preds = %28
  br label %30

30:                                               ; preds = %29, %18
  br label %31

31:                                               ; preds = %30
  %32 = getelementptr inbounds nuw %"class.absl::debugging_internal::ElfMemImage", ptr %6, i32 0, i32 0
  %33 = load ptr, ptr %32, align 8, !tbaa !12
  %34 = getelementptr inbounds nuw %"class.absl::debugging_internal::ElfMemImage", ptr %6, i32 0, i32 0
  %35 = load ptr, ptr %34, align 8, !tbaa !12
  %36 = getelementptr inbounds nuw %struct.Elf64_Ehdr, ptr %35, i32 0, i32 5
  %37 = load i64, ptr %36, align 8, !tbaa !43
  %38 = getelementptr inbounds nuw %"class.absl::debugging_internal::ElfMemImage", ptr %6, i32 0, i32 0
  %39 = load ptr, ptr %38, align 8, !tbaa !12
  %40 = getelementptr inbounds nuw %struct.Elf64_Ehdr, ptr %39, i32 0, i32 9
  %41 = load i16, ptr %40, align 2, !tbaa !44
  %42 = zext i16 %41 to i32
  %43 = load i32, ptr %4, align 4, !tbaa !26
  %44 = sext i32 %43 to i64
  %45 = call noundef ptr @_ZN4absl18debugging_internal12_GLOBAL__N_115GetTableElementI10Elf64_PhdrEEPKT_PK10Elf64_Ehdrmjm(ptr noundef %33, i64 noundef %37, i32 noundef %42, i64 noundef %44)
  ret ptr %45
}