; Function Attrs: mustprogress uwtable
define dso_local noundef ptr @_ZNK4absl18debugging_internal11ElfMemImage7GetPhdrEi(ptr noundef nonnull readonly align 8 captures(none) dereferenceable(72) %0, i32 noundef %1) local_unnamed_addr #0 align 2 {
  %3 = icmp sgt i32 %1, -1
  br i1 %3, label %4, label %.critedge, !prof !39

4:                                                ; preds = %2
  %5 = load ptr, ptr %0, align 8, !tbaa !15
  %6 = getelementptr inbounds nuw i8, ptr %5, i64 56
  %7 = load i16, ptr %6, align 8, !tbaa !16
  %8 = zext i16 %7 to i32
  %.not = icmp samesign ult i32 %1, %8
  br i1 %.not, label %9, label %.critedge, !prof !39

.critedge:                                        ; preds = %2, %4
  tail call void (i32, ptr, i32, ptr, ...) @_ZN4absl16raw_log_internal6RawLogENS_11LogSeverityEPKciS3_z(i32 noundef 3, ptr noundef nonnull getelementptr inbounds nuw (i8, ptr @.str, i64 123), i32 noundef 105, ptr noundef nonnull @.str.1, ptr noundef nonnull @.str.6, ptr noundef nonnull @.str.5)
  unreachable

9:                                                ; preds = %4
  %10 = getelementptr inbounds nuw i8, ptr %5, i64 32
  %11 = load i64, ptr %10, align 8, !tbaa !19
  %12 = getelementptr inbounds nuw i8, ptr %5, i64 54
  %13 = load i16, ptr %12, align 2, !tbaa !20
  %14 = zext nneg i32 %1 to i64
  %15 = getelementptr inbounds nuw i8, ptr %5, i64 %11
  %16 = zext i16 %13 to i64
  %17 = mul nuw nsw i64 %16, %14
  %18 = getelementptr inbounds nuw i8, ptr %15, i64 %17
  ret ptr %18
}